; Function Attrs: mustprogress uwtable
define noundef nonnull align 8 dereferenceable(48) ptr @_ZNK7Imf_3_29InputFile11frameBufferEv(ptr nocapture noundef nonnull readonly align 8 dereferenceable(16) %this) local_unnamed_addr #3 align 2 personality ptr @__gxx_personality_v0 {
entry:
  %_data = getelementptr inbounds i8, ptr %this, i64 8
  %0 = load ptr, ptr %_data, align 8
  %compositor = getelementptr inbounds i8, ptr %0, i64 200
  %1 = load ptr, ptr %compositor, align 8
  %tobool.not = icmp eq ptr %1, null
  br i1 %tobool.not, label %if.else, label %if.then

if.then:                                          ; preds = %entry
  %call = tail call noundef nonnull align 8 dereferenceable(48) ptr @_ZNK7Imf_3_221CompositeDeepScanLine11frameBufferEv(ptr noundef nonnull align 8 dereferenceable(16) %1)
  br label %return

if.else:                                          ; preds = %entry
  %isTiled = getelementptr inbounds i8, ptr %0, i64 100
  %2 = load i8, ptr %isTiled, align 4
  %3 = and i8 %2, 1
  %tobool5.not = icmp eq i8 %3, 0
  br i1 %tobool5.not, label %if.else9, label %if.then6

if.then6:                                         ; preds = %if.else
  %call1.i.i.i = tail call noundef i32 @pthread_mutex_lock(ptr noundef nonnull %0) #20
  %tobool.not.i.i = icmp eq i32 %call1.i.i.i, 0
  br i1 %tobool.not.i.i, label %_ZNSt10lock_guardISt5mutexEC2ERS0_.exit, label %if.then.i.i

if.then.i.i:                                      ; preds = %if.then6
  tail call void @_ZSt20__throw_system_errori(i32 noundef %call1.i.i.i) #22
  unreachable

_ZNSt10lock_guardISt5mutexEC2ERS0_.exit:          ; preds = %if.then6
  %4 = load ptr, ptr %_data, align 8
  %tFileBuffer = getelementptr inbounds i8, ptr %4, i64 144
  %call1.i.i.i1 = tail call noundef i32 @pthread_mutex_unlock(ptr noundef nonnull %0) #20
  br label %return

if.else9:                                         ; preds = %if.else
  %sFile = getelementptr inbounds i8, ptr %0, i64 112
  %5 = load ptr, ptr %sFile, align 8
  %call11 = tail call noundef nonnull align 8 dereferenceable(48) ptr @_ZNK7Imf_3_217ScanLineInputFile11frameBufferEv(ptr noundef nonnull align 8 dereferenceable(24) %5)
  br label %return

return:                                           ; preds = %if.else9, %_ZNSt10lock_guardISt5mutexEC2ERS0_.exit, %if.then
  %retval.0 = phi ptr [ %call, %if.then ], [ %tFileBuffer, %_ZNSt10lock_guardISt5mutexEC2ERS0_.exit ], [ %call11, %if.else9 ]
  ret ptr %retval.0
}